target datalayout = "e-m:e-p270:32:32-p271:32:32-p272:64:64-i64:64-i128:128-f80:128-n8:16:32:64-S128"
target triple = "x86_64-pc-linux-gnu"

%struct.opj_tls_t = type { ptr, i32 }
%struct.opj_tls_key_val_t = type { i32, ptr, ptr }

; Function Attrs: nounwind uwtable
define hidden ptr @opj_tls_get(ptr noundef %0, i32 noundef %1) #0 {
  %3 = alloca ptr, align 8
  %4 = alloca ptr, align 8
  %5 = alloca i32, align 4
  %6 = alloca i32, align 4
  %7 = alloca i32, align 4
  store ptr %0, ptr %4, align 8, !tbaa !20
  store i32 %1, ptr %5, align 4, !tbaa !10
  call void @llvm.lifetime.start.p0(i64 4, ptr %6) #4
  store i32 0, ptr %6, align 4, !tbaa !10
  br label %8

8:                                                ; preds = %35, %2
  %9 = load i32, ptr %6, align 4, !tbaa !10
  %10 = load ptr, ptr %4, align 8, !tbaa !20
  %11 = getelementptr inbounds nuw %struct.opj_tls_t, ptr %10, i32 0, i32 1
  %12 = load i32, ptr %11, align 8, !tbaa !22
  %13 = icmp slt i32 %9, %12
  br i1 %13, label %14, label %38

14:                                               ; preds = %8
  %15 = load ptr, ptr %4, align 8, !tbaa !20
  %16 = getelementptr inbounds nuw %struct.opj_tls_t, ptr %15, i32 0, i32 0
  %17 = load ptr, ptr %16, align 8, !tbaa !24
  %18 = load i32, ptr %6, align 4, !tbaa !10
  %19 = sext i32 %18 to i64
  %20 = getelementptr inbounds %struct.opj_tls_key_val_t, ptr %17, i64 %19
  %21 = getelementptr inbounds nuw %struct.opj_tls_key_val_t, ptr %20, i32 0, i32 0
  %22 = load i32, ptr %21, align 8, !tbaa !25
  %23 = load i32, ptr %5, align 4, !tbaa !10
  %24 = icmp eq i32 %22, %23
  br i1 %24, label %25, label %34

25:                                               ; preds = %14
  %26 = load ptr, ptr %4, align 8, !tbaa !20
  %27 = getelementptr inbounds nuw %struct.opj_tls_t, ptr %26, i32 0, i32 0
  %28 = load ptr, ptr %27, align 8, !tbaa !24
  %29 = load i32, ptr %6, align 4, !tbaa !10
  %30 = sext i32 %29 to i64
  %31 = getelementptr inbounds %struct.opj_tls_key_val_t, ptr %28, i64 %30
  %32 = getelementptr inbounds nuw %struct.opj_tls_key_val_t, ptr %31, i32 0, i32 1
  %33 = load ptr, ptr %32, align 8, !tbaa !27
  store ptr %33, ptr %3, align 8
  store i32 1, ptr %7, align 4
  br label %39

34:                                               ; preds = %14
  br label %35

35:                                               ; preds = %34
  %36 = load i32, ptr %6, align 4, !tbaa !10
  %37 = add nsw i32 %36, 1
  store i32 %37, ptr %6, align 4, !tbaa !10
  br label %8, !llvm.loop !28

38:                                               ; preds = %8
  store ptr null, ptr %3, align 8
  store i32 1, ptr %7, align 4
  br label %39

39:                                               ; preds = %38, %25
  call void @llvm.lifetime.end.p0(i64 4, ptr %6) #4
  %40 = load ptr, ptr %3, align 8
  ret ptr %40
}