; Function Attrs: nofree norecurse nosync nounwind memory(read, inaccessiblemem: none) uwtable
define hidden ptr @opj_tls_get(ptr noundef readonly captures(none) %0, i32 noundef %1) local_unnamed_addr #5 {
  %3 = getelementptr inbounds nuw i8, ptr %0, i64 8
  %4 = load i32, ptr %3, align 8, !tbaa !11
  %5 = icmp sgt i32 %4, 0
  br i1 %5, label %.lr.ph, label %.loopexit

.lr.ph:                                           ; preds = %2
  %6 = load ptr, ptr %0, align 8, !tbaa !14
  %wide.trip.count = zext nneg i32 %4 to i64
  br label %8

7:                                                ; preds = %8
  %indvars.iv.next = add nuw nsw i64 %indvars.iv, 1
  %exitcond.not = icmp eq i64 %indvars.iv.next, %wide.trip.count
  br i1 %exitcond.not, label %.loopexit, label %8, !llvm.loop !15

8:                                                ; preds = %.lr.ph, %7
  %indvars.iv = phi i64 [ 0, %.lr.ph ], [ %indvars.iv.next, %7 ]
  %9 = getelementptr inbounds nuw %struct.opj_tls_key_val_t, ptr %6, i64 %indvars.iv
  %10 = load i32, ptr %9, align 8, !tbaa !17
  %11 = icmp eq i32 %10, %1
  br i1 %11, label %12, label %7

12:                                               ; preds = %8
  %13 = getelementptr inbounds nuw i8, ptr %9, i64 8
  %14 = load ptr, ptr %13, align 8, !tbaa !19
  br label %.loopexit

.loopexit:                                        ; preds = %7, %2, %12
  %.08 = phi ptr [ %14, %12 ], [ null, %2 ], [ null, %7 ]
  ret ptr %.08
}